#include <math.h>
#include <stdio.h>
#include <stdlib.h>
#include <string.h>

int main(int argc,char*argv[])
{
    long int m,n,k,a,i;
    scanf("%ld%ld",&n,&k);
    for(a=1;a<=m;a++)
    {m=a*n+k;
     for(i=1;i<=n-1;i++)
     {if(m%(n-1)!=0) break;
      m=m/(n-1)*n+k;} 
      if(i==n)
      {printf("%ld\n",m);
       break;}}
      return 0;
}
